target datalayout = "e-m:e-p270:32:32-p271:32:32-p272:64:64-i64:64-i128:128-f80:128-n8:16:32:64-S128"
target triple = "x86_64-pc-linux-gnu"

%struct.job_record = type { i32, ptr, ptr, ptr, ptr, i16, i32, i32, i32, ptr, i32, ptr, ptr, i16, ptr, double, i64, ptr, ptr, ptr, ptr, ptr, ptr, i32, ptr, i32, i64, i64, i32, i32, ptr, i16, i64, i64, i8, i32, ptr, ptr, ptr, ptr, ptr, ptr, ptr, ptr, i32, ptr, ptr, i32, ptr, i32, ptr, i32, ptr, i32, ptr, ptr, ptr, ptr, ptr, ptr, i32, i16, i64, ptr, ptr, ptr, ptr, %struct.acct_policy_limit_set_t, i16, ptr, ptr, ptr, ptr, ptr, i32, ptr, ptr, ptr, ptr, ptr, i32, i32, ptr, ptr, ptr, i16, ptr, ptr, i8, ptr, ptr, i64, i64, i8, i32, i32, i8, i32, ptr, i32, i64, i32, ptr, ptr, ptr, i8, i16, i64, i32, ptr, ptr, ptr, ptr, ptr, i16, i32, ptr, ptr, ptr, ptr, i32, ptr, i32, i16, i64, ptr, i32, i32, ptr, i64, ptr, ptr, i64, i32, i32, i64, i32, i32, ptr, ptr, ptr, ptr, ptr, ptr, ptr, ptr, ptr, ptr, ptr, ptr, i32, ptr, i16, i16, i16, i16, ptr, i32, i32, i8, i64 }
%struct.acct_policy_limit_set_t = type { i16, i16, ptr }
%struct.topology_eval = type { ptr, i16, ptr, i16, i8, ptr, i8, i8, ptr, i32, ptr, i32, ptr, i8, i32, i8 }
%struct.avail_res = type { i16, i16, i16, ptr, i32, i32, i16, i16, i16, ptr, i16, i16 }
%struct.node_record = type { ptr, ptr, i16, i64, i64, ptr, ptr, ptr, i16, ptr, i16, i16, i32, i32, i64, ptr, i16, i16, ptr, ptr, ptr, ptr, ptr, i64, i64, ptr, ptr, ptr, ptr, i32, ptr, ptr, i64, i64, i32, ptr, i64, ptr, i32, i16, ptr, ptr, i32, ptr, i32, i8, ptr, i32, i16, i16, ptr, i16, i64, i16, i64, ptr, i64, i32, i16, i64, i16, ptr, i16, i64, ptr, i64, i16, i32, i16, ptr, ptr, ptr, i16, i32, i16, i16, i32, ptr, i16, i32 }

; Function Attrs: nounwind uwtable
define dso_local void @eval_nodes_clip_socket_cores(ptr noundef %0) #0 {
  %2 = alloca ptr, align 8
  %3 = alloca ptr, align 8
  %4 = alloca ptr, align 8
  %5 = alloca i16, align 2
  %6 = alloca ptr, align 8
  %7 = alloca i32, align 4
  %8 = alloca i32, align 4
  %9 = alloca i32, align 4
  %10 = alloca i32, align 4
  %11 = alloca i32, align 4
  %12 = alloca i32, align 4
  %13 = alloca i32, align 4
  store ptr %0, ptr %2, align 8
  call void @llvm.lifetime.start.p0(i64 8, ptr %3) #4
  call void @llvm.lifetime.start.p0(i64 8, ptr %4) #4
  call void @llvm.lifetime.start.p0(i64 2, ptr %5) #4
  call void @llvm.lifetime.start.p0(i64 8, ptr %6) #4
  call void @llvm.lifetime.start.p0(i64 4, ptr %7) #4
  call void @llvm.lifetime.start.p0(i64 4, ptr %8) #4
  %14 = load ptr, ptr %2, align 8
  %15 = getelementptr inbounds nuw %struct.topology_eval, ptr %14, i32 0, i32 8
  %16 = load ptr, ptr %15, align 8
  %17 = getelementptr inbounds nuw %struct.job_record, ptr %16, i32 0, i32 41
  %18 = load ptr, ptr %17, align 8
  %19 = icmp ne ptr %18, null
  br i1 %19, label %21, label %20

20:                                               ; preds = %1
  store i32 1, ptr %9, align 4
  br label %129

21:                                               ; preds = %1
  call void @llvm.lifetime.start.p0(i64 4, ptr %10) #4
  store i32 0, ptr %10, align 4
  br label %22

22:                                               ; preds = %125, %21
  %23 = load ptr, ptr %2, align 8
  %24 = getelementptr inbounds nuw %struct.topology_eval, ptr %23, i32 0, i32 12
  %25 = load ptr, ptr %24, align 8
  %26 = call ptr @next_node_bitmap(ptr noundef %25, ptr noundef %10)
  store ptr %26, ptr %6, align 8
  %27 = icmp ne ptr %26, null
  br i1 %27, label %29, label %28

28:                                               ; preds = %22
  store i32 2, ptr %9, align 4
  call void @llvm.lifetime.end.p0(i64 4, ptr %10) #4
  br label %128

29:                                               ; preds = %22
  %30 = load ptr, ptr %2, align 8
  %31 = getelementptr inbounds nuw %struct.topology_eval, ptr %30, i32 0, i32 0
  %32 = load ptr, ptr %31, align 8
  %33 = load i32, ptr %10, align 4
  %34 = sext i32 %33 to i64
  %35 = getelementptr inbounds ptr, ptr %32, i64 %34
  %36 = load ptr, ptr %35, align 8
  store ptr %36, ptr %3, align 8
  %37 = load ptr, ptr %2, align 8
  %38 = getelementptr inbounds nuw %struct.topology_eval, ptr %37, i32 0, i32 2
  %39 = load ptr, ptr %38, align 8
  %40 = load i32, ptr %10, align 4
  %41 = sext i32 %40 to i64
  %42 = getelementptr inbounds ptr, ptr %39, i64 %41
  %43 = load ptr, ptr %42, align 8
  %44 = getelementptr inbounds nuw %struct.avail_res, ptr %43, i32 0, i32 3
  %45 = load ptr, ptr %44, align 8
  store ptr %45, ptr %4, align 8
  call void @llvm.lifetime.start.p0(i64 4, ptr %11) #4
  store i32 0, ptr %11, align 4
  br label %46

46:                                               ; preds = %121, %29
  %47 = load i32, ptr %11, align 4
  %48 = load ptr, ptr %6, align 8
  %49 = getelementptr inbounds nuw %struct.node_record, ptr %48, i32 0, i32 75
  %50 = load i16, ptr %49, align 2
  %51 = zext i16 %50 to i32
  %52 = icmp slt i32 %47, %51
  br i1 %52, label %54, label %53

53:                                               ; preds = %46
  store i32 5, ptr %9, align 4
  call void @llvm.lifetime.end.p0(i64 4, ptr %11) #4
  br label %124

54:                                               ; preds = %46
  %55 = load i32, ptr %11, align 4
  %56 = load ptr, ptr %6, align 8
  %57 = getelementptr inbounds nuw %struct.node_record, ptr %56, i32 0, i32 11
  %58 = load i16, ptr %57, align 2
  %59 = zext i16 %58 to i32
  %60 = mul nsw i32 %55, %59
  store i32 %60, ptr %7, align 4
  %61 = load i32, ptr %7, align 4
  %62 = load ptr, ptr %6, align 8
  %63 = getelementptr inbounds nuw %struct.node_record, ptr %62, i32 0, i32 11
  %64 = load i16, ptr %63, align 2
  %65 = zext i16 %64 to i32
  %66 = add nsw i32 %61, %65
  store i32 %66, ptr %8, align 4
  %67 = load ptr, ptr %3, align 8
  %68 = load i32, ptr %7, align 4
  %69 = load i32, ptr %8, align 4
  %70 = call i32 @bit_set_count_range(ptr noundef %67, i32 noundef %68, i32 noundef %69)
  %71 = trunc i32 %70 to i16
  store i16 %71, ptr %5, align 2
  call void @llvm.lifetime.start.p0(i64 4, ptr %12) #4
  %72 = load ptr, ptr %6, align 8
  %73 = getelementptr inbounds nuw %struct.node_record, ptr %72, i32 0, i32 11
  %74 = load i16, ptr %73, align 2
  %75 = zext i16 %74 to i32
  %76 = sub nsw i32 %75, 1
  store i32 %76, ptr %12, align 4
  br label %77

77:                                               ; preds = %116, %54
  %78 = load i32, ptr %12, align 4
  %79 = icmp sge i32 %78, 0
  br i1 %79, label %81, label %80

80:                                               ; preds = %77
  store i32 8, ptr %9, align 4
  br label %119

81:                                               ; preds = %77
  call void @llvm.lifetime.start.p0(i64 4, ptr %13) #4
  %82 = load i32, ptr %11, align 4
  %83 = load ptr, ptr %6, align 8
  %84 = getelementptr inbounds nuw %struct.node_record, ptr %83, i32 0, i32 11
  %85 = load i16, ptr %84, align 2
  %86 = zext i16 %85 to i32
  %87 = mul nsw i32 %82, %86
  %88 = load i32, ptr %12, align 4
  %89 = add nsw i32 %87, %88
  store i32 %89, ptr %13, align 4
  %90 = load i16, ptr %5, align 2
  %91 = zext i16 %90 to i32
  %92 = load ptr, ptr %4, align 8
  %93 = load i32, ptr %11, align 4
  %94 = sext i32 %93 to i64
  %95 = getelementptr inbounds i16, ptr %92, i64 %94
  %96 = load i16, ptr %95, align 2
  %97 = zext i16 %96 to i32
  %98 = icmp sle i32 %91, %97
  br i1 %98, label %99, label %100

99:                                               ; preds = %81
  store i32 8, ptr %9, align 4
  br label %113

100:                                              ; preds = %81
  %101 = load ptr, ptr %3, align 8
  %102 = load i32, ptr %13, align 4
  %103 = sext i32 %102 to i64
  %104 = call i32 @slurm_bit_test(ptr noundef %101, i64 noundef %103)
  %105 = icmp ne i32 %104, 0
  br i1 %105, label %107, label %106

106:                                              ; preds = %100
  store i32 10, ptr %9, align 4
  br label %113

107:                                              ; preds = %100
  %108 = load ptr, ptr %3, align 8
  %109 = load i32, ptr %13, align 4
  %110 = sext i32 %109 to i64
  call void @bit_clear(ptr noundef %108, i64 noundef %110)
  %111 = load i16, ptr %5, align 2
  %112 = add i16 %111, -1
  store i16 %112, ptr %5, align 2
  store i32 0, ptr %9, align 4
  br label %113

113:                                              ; preds = %107, %106, %99
  call void @llvm.lifetime.end.p0(i64 4, ptr %13) #4
  %114 = load i32, ptr %9, align 4
  switch i32 %114, label %119 [
    i32 0, label %115
    i32 10, label %116
  ]

115:                                              ; preds = %113
  br label %116

116:                                              ; preds = %115, %113
  %117 = load i32, ptr %12, align 4
  %118 = add nsw i32 %117, -1
  store i32 %118, ptr %12, align 4
  br label %77, !llvm.loop !10

119:                                              ; preds = %113, %80
  call void @llvm.lifetime.end.p0(i64 4, ptr %12) #4
  br label %120

120:                                              ; preds = %119
  br label %121

121:                                              ; preds = %120
  %122 = load i32, ptr %11, align 4
  %123 = add nsw i32 %122, 1
  store i32 %123, ptr %11, align 4
  br label %46, !llvm.loop !13

124:                                              ; preds = %53
  br label %125

125:                                              ; preds = %124
  %126 = load i32, ptr %10, align 4
  %127 = add nsw i32 %126, 1
  store i32 %127, ptr %10, align 4
  br label %22, !llvm.loop !14

128:                                              ; preds = %28
  store i32 0, ptr %9, align 4
  br label %129

129:                                              ; preds = %128, %20
  call void @llvm.lifetime.end.p0(i64 4, ptr %8) #4
  call void @llvm.lifetime.end.p0(i64 4, ptr %7) #4
  call void @llvm.lifetime.end.p0(i64 8, ptr %6) #4
  call void @llvm.lifetime.end.p0(i64 2, ptr %5) #4
  call void @llvm.lifetime.end.p0(i64 8, ptr %4) #4
  call void @llvm.lifetime.end.p0(i64 8, ptr %3) #4
  %130 = load i32, ptr %9, align 4
  switch i32 %130, label %132 [
    i32 0, label %131
    i32 1, label %131
  ]

131:                                              ; preds = %129, %129
  ret void

132:                                              ; preds = %129
  unreachable
}