; Function Attrs: nounwind uwtable
define dso_local void @eval_nodes_clip_socket_cores(ptr noundef readonly captures(none) %0) local_unnamed_addr #0 {
  %2 = alloca i32, align 4
  %3 = getelementptr inbounds nuw i8, ptr %0, i64 48
  %4 = load ptr, ptr %3, align 8
  %5 = getelementptr inbounds nuw i8, ptr %4, i64 296
  %6 = load ptr, ptr %5, align 8
  %.not = icmp eq ptr %6, null
  br i1 %.not, label %57, label %7

7:                                                ; preds = %1
  call void @llvm.lifetime.start.p0(i64 4, ptr nonnull %2) #8
  %8 = getelementptr inbounds nuw i8, ptr %0, i64 80
  store i32 0, ptr %2, align 4
  %9 = load ptr, ptr %8, align 8
  %10 = call ptr @next_node_bitmap(ptr noundef %9, ptr noundef nonnull %2) #8
  %.not3246 = icmp eq ptr %10, null
  br i1 %.not3246, label %._crit_edge49, label %.lr.ph48

.lr.ph48:                                         ; preds = %7
  %11 = getelementptr inbounds nuw i8, ptr %0, i64 16
  br label %12

._crit_edge49:                                    ; preds = %._crit_edge45, %7
  call void @llvm.lifetime.end.p0(i64 4, ptr nonnull %2) #8
  br label %57

12:                                               ; preds = %.lr.ph48, %._crit_edge45
  %13 = phi ptr [ %10, %.lr.ph48 ], [ %30, %._crit_edge45 ]
  %14 = load ptr, ptr %0, align 8
  %15 = load i32, ptr %2, align 4
  %16 = sext i32 %15 to i64
  %17 = getelementptr inbounds ptr, ptr %14, i64 %16
  %18 = load ptr, ptr %17, align 8
  %19 = load ptr, ptr %11, align 8
  %20 = getelementptr inbounds ptr, ptr %19, i64 %16
  %21 = load ptr, ptr %20, align 8
  %22 = getelementptr inbounds nuw i8, ptr %21, i64 8
  %23 = load ptr, ptr %22, align 8
  %24 = getelementptr inbounds nuw i8, ptr %13, i64 514
  %25 = load i16, ptr %24, align 2
  %.not50 = icmp eq i16 %25, 0
  br i1 %.not50, label %._crit_edge45, label %.lr.ph44

.lr.ph44:                                         ; preds = %12
  %26 = getelementptr inbounds nuw i8, ptr %13, i64 82
  br label %31

._crit_edge45.loopexit:                           ; preds = %._crit_edge
  %.pre = load i32, ptr %2, align 4
  br label %._crit_edge45

._crit_edge45:                                    ; preds = %._crit_edge45.loopexit, %12
  %27 = phi i32 [ %.pre, %._crit_edge45.loopexit ], [ %15, %12 ]
  %28 = add nsw i32 %27, 1
  store i32 %28, ptr %2, align 4
  %29 = load ptr, ptr %8, align 8
  %30 = call ptr @next_node_bitmap(ptr noundef %29, ptr noundef nonnull %2) #8
  %.not32 = icmp eq ptr %30, null
  br i1 %.not32, label %._crit_edge49, label %12, !llvm.loop !16

31:                                               ; preds = %.lr.ph44, %._crit_edge
  %indvars.iv = phi i64 [ 0, %.lr.ph44 ], [ %indvars.iv.next, %._crit_edge ]
  %32 = load i16, ptr %26, align 2
  %33 = zext i16 %32 to i32
  %34 = trunc nuw nsw i64 %indvars.iv to i32
  %35 = mul nuw nsw i32 %34, %33
  %36 = add nuw nsw i32 %35, %33
  %37 = call i32 @bit_set_count_range(ptr noundef %18, i32 noundef %35, i32 noundef %36) #8
  %38 = load i16, ptr %26, align 2
  %39 = getelementptr inbounds nuw i16, ptr %23, i64 %indvars.iv
  %.not51 = icmp eq i16 %38, 0
  br i1 %.not51, label %._crit_edge, label %.lr.ph.preheader

.lr.ph.preheader:                                 ; preds = %31
  %40 = zext i16 %38 to i32
  %41 = trunc i32 %37 to i16
  br label %.lr.ph

.lr.ph:                                           ; preds = %.lr.ph.preheader, %52
  %.02840.in = phi i32 [ %.02840, %52 ], [ %40, %.lr.ph.preheader ]
  %.039 = phi i16 [ %.1.ph, %52 ], [ %41, %.lr.ph.preheader ]
  %.02840 = add nsw i32 %.02840.in, -1
  %42 = load i16, ptr %39, align 2
  %.not33 = icmp ugt i16 %.039, %42
  br i1 %.not33, label %43, label %._crit_edge

43:                                               ; preds = %.lr.ph
  %44 = load i16, ptr %26, align 2
  %45 = zext i16 %44 to i32
  %46 = mul nuw nsw i32 %34, %45
  %47 = add nsw i32 %46, %.02840
  %48 = sext i32 %47 to i64
  %49 = call i32 @slurm_bit_test(ptr noundef %18, i64 noundef %48) #8
  %.not34 = icmp eq i32 %49, 0
  br i1 %.not34, label %52, label %50

50:                                               ; preds = %43
  call void @bit_clear(ptr noundef %18, i64 noundef %48) #8
  %51 = add i16 %.039, -1
  br label %52

52:                                               ; preds = %50, %43
  %.1.ph = phi i16 [ %.039, %43 ], [ %51, %50 ]
  %53 = icmp samesign ugt i32 %.02840.in, 1
  br i1 %53, label %.lr.ph, label %._crit_edge, !llvm.loop !17

._crit_edge:                                      ; preds = %52, %.lr.ph, %31
  %indvars.iv.next = add nuw nsw i64 %indvars.iv, 1
  %54 = load i16, ptr %24, align 2
  %55 = zext i16 %54 to i64
  %56 = icmp samesign ult i64 %indvars.iv.next, %55
  br i1 %56, label %31, label %._crit_edge45.loopexit, !llvm.loop !18

57:                                               ; preds = %1, %._crit_edge49
  ret void
}